target datalayout = "e-m:e-p270:32:32-p271:32:32-p272:64:64-i64:64-i128:128-f80:128-n8:16:32:64-S128"
target triple = "x86_64-pc-linux-gnu"

%"class.duckdb_apache::thrift::TBase" = type { ptr }
%"class.duckdb_parquet::PageEncodingStats" = type <{ %"class.duckdb_apache::thrift::TBase", i32, i32, i32, [4 x i8] }>

; Function Attrs: inlinehint mustprogress nounwind uwtable
define linkonce_odr void @_ZN13duckdb_apache6thrift5TBaseC2Ev(ptr noundef nonnull align 8 dereferenceable(8) %0) unnamed_addr #7 comdat align 2 {
  %2 = alloca ptr, align 8
  store ptr %0, ptr %2, align 8, !tbaa !76
  %3 = load ptr, ptr %2, align 8
  store ptr getelementptr inbounds inrange(-16, 32) ({ [6 x ptr] }, ptr @_ZTVN13duckdb_apache6thrift5TBaseE, i32 0, i32 0, i32 2), ptr %3, align 8, !tbaa !36
  ret void
}

; Function Attrs: mustprogress nounwind uwtable
define void @_ZN14duckdb_parquet17PageEncodingStatsC1Ev(ptr noundef nonnull align 8 dereferenceable(20) %0) unnamed_addr #1 align 2 {
  %2 = alloca ptr, align 8
  store ptr %0, ptr %2, align 8, !tbaa !342
  %3 = load ptr, ptr %2, align 8
  call void @_ZN13duckdb_apache6thrift5TBaseC2Ev(ptr noundef nonnull align 8 dereferenceable(8) %3) #3
  store ptr getelementptr inbounds inrange(-48, 40) ({ [11 x ptr] }, ptr @_ZTVN14duckdb_parquet17PageEncodingStatsE, i32 0, i32 0, i32 6), ptr %3, align 8, !tbaa !36
  store ptr getelementptr inbounds inrange(-48, 40) ({ [11 x ptr] }, ptr @_ZTVN14duckdb_parquet17PageEncodingStatsE, i32 0, i32 0, i32 6), ptr %3, align 8, !tbaa !36
  %4 = getelementptr inbounds nuw %"class.duckdb_parquet::PageEncodingStats", ptr %3, i32 0, i32 1
  store i32 0, ptr %4, align 8, !tbaa !344
  %5 = getelementptr inbounds nuw %"class.duckdb_parquet::PageEncodingStats", ptr %3, i32 0, i32 2
  store i32 0, ptr %5, align 4, !tbaa !346
  %6 = getelementptr inbounds nuw %"class.duckdb_parquet::PageEncodingStats", ptr %3, i32 0, i32 3
  store i32 0, ptr %6, align 8, !tbaa !347
  ret void
}