; Function Attrs: mustprogress nofree norecurse nosync nounwind willreturn memory(argmem: write) uwtable
define void @_ZN14duckdb_parquet17PageEncodingStatsC1Ev(ptr noundef nonnull writeonly align 8 captures(none) dereferenceable(20) initializes((0, 20)) %0) unnamed_addr #13 align 2 {
  store ptr getelementptr inbounds nuw inrange(-48, 40) (i8, ptr @_ZTVN14duckdb_parquet17PageEncodingStatsE, i64 48), ptr %0, align 8, !tbaa !22
  %2 = getelementptr inbounds nuw i8, ptr %0, i64 8
  store i32 0, ptr %2, align 8, !tbaa !492
  %3 = getelementptr inbounds nuw i8, ptr %0, i64 12
  store i32 0, ptr %3, align 4, !tbaa !494
  %4 = getelementptr inbounds nuw i8, ptr %0, i64 16
  store i32 0, ptr %4, align 8, !tbaa !495
  ret void
}